target datalayout = "e-m:e-p270:32:32-p271:32:32-p272:64:64-i64:64-i128:128-f80:128-n8:16:32:64-S128"
target triple = "x86_64-pc-linux-gnu"

%struct.PlanState = type { i32, ptr, ptr, ptr, ptr, ptr, ptr, ptr, ptr, ptr, ptr, ptr, ptr, ptr, ptr, ptr, ptr, ptr, i8, ptr, ptr, ptr, ptr, ptr, i8, i8, i8, i8, i8, i8, i8, i8 }
%struct.BitmapHeapScanState = type { %struct.ScanState, ptr, ptr, i32, %struct.BitmapHeapScanInstrumentation, %struct.TBMIterator, i32, i32, i32, i8, ptr, ptr, i8, i32, i32 }
%struct.ScanState = type { %struct.PlanState, ptr, ptr, ptr }
%struct.BitmapHeapScanInstrumentation = type { i64, i64 }
%struct.TBMIterator = type { i8, %union.anon }
%union.anon = type { ptr }
%struct.TableScanDescData = type { ptr, ptr, i32, ptr, %union.anon.0, i32, ptr }
%union.anon.0 = type { %struct.TBMIterator }
%struct.RelationData = type { %struct.RelFileLocator, ptr, i32, i32, i8, i8, i8, i8, i8, i32, i32, i32, i32, ptr, ptr, i32, %struct.LockInfoData, ptr, ptr, ptr, ptr, ptr, i8, ptr, ptr, ptr, ptr, ptr, ptr, i32, ptr, i8, ptr, ptr, i32, i8, i32, ptr, i8, ptr, ptr, ptr, ptr, ptr, ptr, ptr, i32, ptr, ptr, ptr, ptr, ptr, ptr, ptr, ptr, ptr, ptr, ptr, ptr, ptr, ptr, ptr, ptr, ptr, ptr, ptr, i32, i8, ptr }
%struct.RelFileLocator = type { i32, i32, i32 }
%struct.LockInfoData = type { %struct.LockRelId }
%struct.LockRelId = type { i32, i32 }
%struct.TableAmRoutine = type { i32, ptr, ptr, ptr, ptr, ptr, ptr, ptr, ptr, ptr, ptr, ptr, ptr, ptr, ptr, ptr, ptr, ptr, ptr, ptr, ptr, ptr, ptr, ptr, ptr, ptr, ptr, ptr, ptr, ptr, ptr, ptr, ptr, ptr, ptr, ptr, ptr, ptr, ptr, ptr, ptr, ptr, ptr, ptr, ptr, ptr }
%struct.SharedBitmapHeapInstrumentation = type { i32, [0 x %struct.BitmapHeapScanInstrumentation] }

@ParallelWorkerNumber = external global i32, align 4

; Function Attrs: inlinehint nounwind uwtable
define internal void @table_endscan(ptr noundef %0) #2 {
  %2 = alloca ptr, align 8
  store ptr %0, ptr %2, align 8
  %3 = load ptr, ptr %2, align 8
  %4 = getelementptr inbounds nuw %struct.TableScanDescData, ptr %3, i32 0, i32 0
  %5 = load ptr, ptr %4, align 8
  %6 = getelementptr inbounds nuw %struct.RelationData, ptr %5, i32 0, i32 47
  %7 = load ptr, ptr %6, align 8
  %8 = getelementptr inbounds nuw %struct.TableAmRoutine, ptr %7, i32 0, i32 3
  %9 = load ptr, ptr %8, align 8
  %10 = load ptr, ptr %2, align 8
  call void %9(ptr noundef %10)
  ret void
}

; Function Attrs: inlinehint nounwind uwtable
define internal zeroext i1 @tbm_exhausted(ptr noundef %0) #2 {
  %2 = alloca ptr, align 8
  store ptr %0, ptr %2, align 8
  %3 = load ptr, ptr %2, align 8
  %4 = getelementptr inbounds nuw %struct.TBMIterator, ptr %3, i32 0, i32 1
  %5 = load ptr, ptr %4, align 8
  %6 = icmp ne ptr %5, null
  %7 = xor i1 %6, true
  ret i1 %7
}

; Function Attrs: nounwind uwtable
define dso_local void @ExecEndBitmapHeapScan(ptr noundef %0) #0 {
  %2 = alloca ptr, align 8
  %3 = alloca ptr, align 8
  %4 = alloca ptr, align 8
  store ptr %0, ptr %2, align 8
  call void @llvm.lifetime.start.p0(i64 8, ptr %3) #8
  %5 = load ptr, ptr %2, align 8
  %6 = getelementptr inbounds nuw %struct.BitmapHeapScanState, ptr %5, i32 0, i32 11
  %7 = load ptr, ptr %6, align 8
  %8 = icmp ne ptr %7, null
  br i1 %8, label %9, label %36

9:                                                ; preds = %1
  %10 = load i32, ptr @ParallelWorkerNumber, align 4
  %11 = icmp sge i32 %10, 0
  br i1 %11, label %12, label %36

12:                                               ; preds = %9
  call void @llvm.lifetime.start.p0(i64 8, ptr %4) #8
  %13 = load ptr, ptr %2, align 8
  %14 = getelementptr inbounds nuw %struct.BitmapHeapScanState, ptr %13, i32 0, i32 11
  %15 = load ptr, ptr %14, align 8
  %16 = getelementptr inbounds nuw %struct.SharedBitmapHeapInstrumentation, ptr %15, i32 0, i32 1
  %17 = load i32, ptr @ParallelWorkerNumber, align 4
  %18 = sext i32 %17 to i64
  %19 = getelementptr inbounds [0 x %struct.BitmapHeapScanInstrumentation], ptr %16, i64 0, i64 %18
  store ptr %19, ptr %4, align 8
  %20 = load ptr, ptr %2, align 8
  %21 = getelementptr inbounds nuw %struct.BitmapHeapScanState, ptr %20, i32 0, i32 4
  %22 = getelementptr inbounds nuw %struct.BitmapHeapScanInstrumentation, ptr %21, i32 0, i32 0
  %23 = load i64, ptr %22, align 8
  %24 = load ptr, ptr %4, align 8
  %25 = getelementptr inbounds nuw %struct.BitmapHeapScanInstrumentation, ptr %24, i32 0, i32 0
  %26 = load i64, ptr %25, align 8
  %27 = add i64 %26, %23
  store i64 %27, ptr %25, align 8
  %28 = load ptr, ptr %2, align 8
  %29 = getelementptr inbounds nuw %struct.BitmapHeapScanState, ptr %28, i32 0, i32 4
  %30 = getelementptr inbounds nuw %struct.BitmapHeapScanInstrumentation, ptr %29, i32 0, i32 1
  %31 = load i64, ptr %30, align 8
  %32 = load ptr, ptr %4, align 8
  %33 = getelementptr inbounds nuw %struct.BitmapHeapScanInstrumentation, ptr %32, i32 0, i32 1
  %34 = load i64, ptr %33, align 8
  %35 = add i64 %34, %31
  store i64 %35, ptr %33, align 8
  call void @llvm.lifetime.end.p0(i64 8, ptr %4) #8
  br label %36

36:                                               ; preds = %12, %9, %1
  %37 = load ptr, ptr %2, align 8
  %38 = getelementptr inbounds nuw %struct.BitmapHeapScanState, ptr %37, i32 0, i32 0
  %39 = getelementptr inbounds nuw %struct.ScanState, ptr %38, i32 0, i32 2
  %40 = load ptr, ptr %39, align 8
  store ptr %40, ptr %3, align 8
  %41 = load ptr, ptr %2, align 8
  %42 = getelementptr inbounds nuw %struct.PlanState, ptr %41, i32 0, i32 9
  %43 = load ptr, ptr %42, align 8
  call void @ExecEndNode(ptr noundef %43)
  %44 = load ptr, ptr %3, align 8
  %45 = icmp ne ptr %44, null
  br i1 %45, label %46, label %55

46:                                               ; preds = %36
  %47 = load ptr, ptr %3, align 8
  %48 = getelementptr inbounds nuw %struct.TableScanDescData, ptr %47, i32 0, i32 4
  %49 = call zeroext i1 @tbm_exhausted(ptr noundef %48)
  br i1 %49, label %53, label %50

50:                                               ; preds = %46
  %51 = load ptr, ptr %3, align 8
  %52 = getelementptr inbounds nuw %struct.TableScanDescData, ptr %51, i32 0, i32 4
  call void @tbm_end_iterate(ptr noundef %52)
  br label %53

53:                                               ; preds = %50, %46
  %54 = load ptr, ptr %3, align 8
  call void @table_endscan(ptr noundef %54)
  br label %55

55:                                               ; preds = %53, %36
  %56 = load ptr, ptr %2, align 8
  %57 = getelementptr inbounds nuw %struct.BitmapHeapScanState, ptr %56, i32 0, i32 5
  %58 = call zeroext i1 @tbm_exhausted(ptr noundef %57)
  br i1 %58, label %62, label %59

59:                                               ; preds = %55
  %60 = load ptr, ptr %2, align 8
  %61 = getelementptr inbounds nuw %struct.BitmapHeapScanState, ptr %60, i32 0, i32 5
  call void @tbm_end_iterate(ptr noundef %61)
  br label %62

62:                                               ; preds = %59, %55
  %63 = load ptr, ptr %2, align 8
  %64 = getelementptr inbounds nuw %struct.BitmapHeapScanState, ptr %63, i32 0, i32 2
  %65 = load ptr, ptr %64, align 8
  %66 = icmp ne ptr %65, null
  br i1 %66, label %67, label %71

67:                                               ; preds = %62
  %68 = load ptr, ptr %2, align 8
  %69 = getelementptr inbounds nuw %struct.BitmapHeapScanState, ptr %68, i32 0, i32 2
  %70 = load ptr, ptr %69, align 8
  call void @tbm_free(ptr noundef %70)
  br label %71

71:                                               ; preds = %67, %62
  %72 = load ptr, ptr %2, align 8
  %73 = getelementptr inbounds nuw %struct.BitmapHeapScanState, ptr %72, i32 0, i32 3
  %74 = load i32, ptr %73, align 8
  %75 = icmp ne i32 %74, 0
  br i1 %75, label %76, label %80

76:                                               ; preds = %71
  %77 = load ptr, ptr %2, align 8
  %78 = getelementptr inbounds nuw %struct.BitmapHeapScanState, ptr %77, i32 0, i32 3
  %79 = load i32, ptr %78, align 8
  call void @ReleaseBuffer(i32 noundef %79)
  br label %80

80:                                               ; preds = %76, %71
  call void @llvm.lifetime.end.p0(i64 8, ptr %3) #8
  ret void
}