; Function Attrs: nounwind uwtable
define dso_local void @ExecEndBitmapHeapScan(ptr noundef %0) local_unnamed_addr #0 {
  %2 = getelementptr inbounds nuw i8, ptr %0, i64 304
  %3 = load ptr, ptr %2, align 8
  %4 = icmp ne ptr %3, null
  %5 = load i32, ptr @ParallelWorkerNumber, align 4
  %6 = icmp sgt i32 %5, -1
  %or.cond = select i1 %4, i1 %6, i1 false
  br i1 %or.cond, label %7, label %20

7:                                                ; preds = %1
  %8 = getelementptr inbounds nuw i8, ptr %3, i64 8
  %9 = zext nneg i32 %5 to i64
  %10 = getelementptr inbounds nuw [0 x %struct.BitmapHeapScanInstrumentation], ptr %8, i64 0, i64 %9
  %11 = getelementptr inbounds nuw i8, ptr %0, i64 248
  %12 = load i64, ptr %11, align 8
  %13 = load i64, ptr %10, align 8
  %14 = add i64 %13, %12
  store i64 %14, ptr %10, align 8
  %15 = getelementptr inbounds nuw i8, ptr %0, i64 256
  %16 = load i64, ptr %15, align 8
  %17 = getelementptr inbounds nuw i8, ptr %10, i64 8
  %18 = load i64, ptr %17, align 8
  %19 = add i64 %18, %16
  store i64 %19, ptr %17, align 8
  br label %20

20:                                               ; preds = %7, %1
  %21 = getelementptr inbounds nuw i8, ptr %0, i64 208
  %22 = load ptr, ptr %21, align 8
  %23 = getelementptr inbounds nuw i8, ptr %0, i64 72
  %24 = load ptr, ptr %23, align 8
  tail call void @ExecEndNode(ptr noundef %24) #7
  %.not = icmp eq ptr %22, null
  br i1 %.not, label %35, label %25

25:                                               ; preds = %20
  %26 = getelementptr i8, ptr %22, i64 40
  %.val25 = load ptr, ptr %26, align 8
  %.not.i = icmp eq ptr %.val25, null
  br i1 %.not.i, label %29, label %27

27:                                               ; preds = %25
  %28 = getelementptr inbounds nuw i8, ptr %22, i64 32
  tail call void @tbm_end_iterate(ptr noundef nonnull %28) #7
  br label %29

29:                                               ; preds = %27, %25
  %30 = load ptr, ptr %22, align 8
  %31 = getelementptr inbounds nuw i8, ptr %30, i64 320
  %32 = load ptr, ptr %31, align 8
  %33 = getelementptr inbounds nuw i8, ptr %32, i64 24
  %34 = load ptr, ptr %33, align 8
  tail call void %34(ptr noundef nonnull %22) #7
  br label %35

35:                                               ; preds = %29, %20
  %36 = getelementptr i8, ptr %0, i64 272
  %.val = load ptr, ptr %36, align 8
  %.not.i26 = icmp eq ptr %.val, null
  br i1 %.not.i26, label %39, label %37

37:                                               ; preds = %35
  %38 = getelementptr inbounds nuw i8, ptr %0, i64 264
  tail call void @tbm_end_iterate(ptr noundef nonnull %38) #7
  br label %39

39:                                               ; preds = %37, %35
  %40 = getelementptr inbounds nuw i8, ptr %0, i64 232
  %41 = load ptr, ptr %40, align 8
  %.not23 = icmp eq ptr %41, null
  br i1 %.not23, label %43, label %42

42:                                               ; preds = %39
  tail call void @tbm_free(ptr noundef nonnull %41) #7
  br label %43

43:                                               ; preds = %42, %39
  %44 = getelementptr inbounds nuw i8, ptr %0, i64 240
  %45 = load i32, ptr %44, align 8
  %.not24 = icmp eq i32 %45, 0
  br i1 %.not24, label %47, label %46

46:                                               ; preds = %43
  tail call void @ReleaseBuffer(i32 noundef %45) #7
  br label %47

47:                                               ; preds = %46, %43
  ret void
}